Certificate:
    Data:
        Version: 3 (0x2)
        Serial Number: 1 (0x1)
    Signature Algorithm: sha1WithRSAEncryption
        Issuer: C=CN, ST=Guangdong, L=Shenzhen, O=CPay Root CA, OU=CPay Root CA, CN=*.unipay.qq.com
        Validity
            Not Before: Jan  1 00:00:00 2010 GMT
            Not After : Dec 22 03:38:12 2028 GMT
        Subject: C=CN, ST=Guangdong, O=CPay Root CA, OU=CPay Root CA, CN=*.unipay.qq.com
        Subject Public Key Info:
            Public Key Algorithm: rsaEncryption
                Public-Key: (2048 bit)
                Modulus:
                    00:f2:3f:89:2c:3a:b2:b4:92:9d:00:7d:66:d6:be:
                    53:c1:0e:9d:cb:e1:ed:9f:bf:ba:55:9e:5e:39:8a:
                    64:be:a8:25:4b:0a:5e:c7:c4:38:8e:eb:f0:ec:7a:
                    ae:30:3b:1e:3a:2a:06:68:c2:e9:4a:3b:30:5e:a4:
                    a9:87:a3:2a:f6:6a:47:1c:de:f0:06:df:a2:1d:e0:
                    13:6c:fd:2a:87:50:8d:0b:d1:fe:a4:27:ae:69:80:
                    51:ad:cb:11:f3:bd:9b:7e:15:be:79:7c:88:a4:7a:
                    13:99:1f:57:38:33:6c:a3:48:0d:8f:da:51:7b:39:
                    cc:fb:9c:82:14:27:00:59:fa:b6:b1:38:a7:89:f2:
                    c1:79:38:fd:89:85:27:13:58:8b:fb:c4:ee:29:73:
                    3a:ec:82:1d:dd:54:25:0b:a0:4f:9a:50:ac:70:9f:
                    76:4b:e4:a0:d5:11:11:4c:1b:92:aa:dd:57:95:63:
                    9b:a1:3b:e0:c9:85:9f:df:35:8c:9b:7c:be:9f:5d:
                    d7:fd:5d:89:40:6c:7b:00:a7:d2:26:2b:68:e4:db:
                    d1:02:ae:1f:d1:ef:28:fa:6a:45:2d:1d:64:ee:60:
                    a6:15:7b:97:27:70:30:53:b6:cd:25:f2:da:d5:0e:
                    8f:7d:c0:57:c8:0b:69:64:7c:57:dc:8c:c3:d1:20:
                    d4:55
                Exponent: 65537 (0x10001)
        X509v3 extensions:
            X509v3 Basic Constraints: 
                CA:FALSE
            Netscape Comment: 
                OpenSSL Generated Certificate
            X509v3 Subject Key Identifier: 
                C2:27:63:58:2F:57:59:E5:AB:A0:DD:80:A3:C7:65:BD:EF:94:2F:BB
            X509v3 Authority Key Identifier: 
                keyid:F1:03:7C:06:E4:29:33:3C:83:29:3E:8E:91:17:89:3A:BF:93:58:82
                DirName:/C=CN/ST=Guangdong/L=Shenzhen/O=CPay Root CA/OU=CPay Root CA/CN=*.unipay.qq.com
                serial:A9:C3:B2:EE:43:CC:E6:8B

            X509v3 Key Usage: 
                Digital Signature, Non Repudiation, Key Encipherment
            X509v3 Subject Alternative Name: 
                DNS:api.unipay.qq.com, DNS:sandbox.api.unipay.qq.com, DNS:210.140.202.80, IP Address:210.140.202.80
    Signature Algorithm: sha1WithRSAEncryption
         08:43:a3:d8:5e:8a:19:b1:62:09:27:d0:f5:ca:ff:e4:c0:26:
         53:fc:d4:8d:74:82:b8:30:bf:3e:5f:29:94:06:04:af:4f:dd:
         03:ac:a8:f7:cd:9d:58:4c:e2:27:35:8f:d0:9b:c6:35:72:12:
         61:29:15:34:a2:37:5f:ac:bc:55:d1:53:2b:14:82:b8:01:6d:
         c4:87:7b:ad:a1:b3:23:0e:19:3e:7c:51:5e:af:12:c4:8c:c3:
         de:54:33:6f:89:0e:4a:87:57:1e:67:ca:39:e1:be:b1:ae:ff:
         38:f6:05:f0:38:b7:92:87:b2:5c:88:c6:45:b2:57:c2:fb:de:
         60:1b:52:ea:bb:a1:85:14:1f:09:7f:67:b4:b2:fc:f3:ba:74:
         ca:fb:03:ef:c6:91:d6:1a:6e:89:b3:99:94:41:0c:2d:ce:61:
         3a:93:b2:4f:a9:ce:0a:2c:88:77:af:48:fc:4d:01:4f:0d:ee:
         ca:52:c9:39:0b:19:bd:ef:00:6d:f5:a9:b8:a8:21:65:c4:a6:
         81:1c:4f:fb:ab:93:0c:be:a9:15:db:25:7c:af:97:4a:fe:9d:
         d9:19:3a:9b:54:61:02:8b:22:df:7a:0b:e4:a0:fe:51:c3:29:
         68:f6:46:d5:00:59:eb:3f:52:f2:21:b4:cb:10:29:f1:54:3f:
         ac:97:0b:9a
-----BEGIN CERTIFICATE-----
MIIEzDCCA7SgAwIBAgIBATANBgkqhkiG9w0BAQUFADB8MQswCQYDVQQGEwJDTjES
MBAGA1UECBMJR3Vhbmdkb25nMREwDwYDVQQHEwhTaGVuemhlbjEVMBMGA1UEChMM
Q1BheSBSb290IENBMRUwEwYDVQQLEwxDUGF5IFJvb3QgQ0ExGDAWBgNVBAMUDyou
dW5pcGF5LnFxLmNvbTAeFw0xMDAxMDEwMDAwMDBaFw0yODEyMjIwMzM4MTJaMGkx
CzAJBgNVBAYTAkNOMRIwEAYDVQQIEwlHdWFuZ2RvbmcxFTATBgNVBAoTDENQYXkg
Um9vdCBDQTEVMBMGA1UECxMMQ1BheSBSb290IENBMRgwFgYDVQQDFA8qLnVuaXBh
eS5xcS5jb20wggEiMA0GCSqGSIb3DQEBAQUAA4IBDwAwggEKAoIBAQDyP4ksOrK0
kp0AfWbWvlPBDp3L4e2fv7pVnl45imS+qCVLCl7HxDiO6/Dseq4wOx46KgZowulK
OzBepKmHoyr2akcc3vAG36Id4BNs/SqHUI0L0f6kJ65pgFGtyxHzvZt+Fb55fIik
ehOZH1c4M2yjSA2P2lF7Ocz7nIIUJwBZ+raxOKeJ8sF5OP2JhScTWIv7xO4pczrs
gh3dVCULoE+aUKxwn3ZL5KDVERFMG5Kq3VeVY5uhO+DJhZ/fNYybfL6fXdf9XYlA
bHsAp9ImK2jk29ECrh/R7yj6akUtHWTuYKYVe5cncDBTts0l8trVDo99wFfIC2lk
fFfcjMPRINRVAgMBAAGjggFqMIIBZjAJBgNVHRMEAjAAMCwGCWCGSAGG+EIBDQQf
Fh1PcGVuU1NMIEdlbmVyYXRlZCBDZXJ0aWZpY2F0ZTAdBgNVHQ4EFgQUwidjWC9X
WeWroN2Ao8dlve+UL7swga8GA1UdIwSBpzCBpIAU8QN8BuQpMzyDKT6OkReJOr+T
WIKhgYCkfjB8MQswCQYDVQQGEwJDTjESMBAGA1UECBMJR3Vhbmdkb25nMREwDwYD
VQQHEwhTaGVuemhlbjEVMBMGA1UEChMMQ1BheSBSb290IENBMRUwEwYDVQQLEwxD
UGF5IFJvb3QgQ0ExGDAWBgNVBAMUDyoudW5pcGF5LnFxLmNvbYIJAKnDsu5DzOaL
MAsGA1UdDwQEAwIF4DBNBgNVHREERjBEghFhcGkudW5pcGF5LnFxLmNvbYIZc2Fu
ZGJveC5hcGkudW5pcGF5LnFxLmNvbYIOMjEwLjE0MC4yMDIuODCHBNKMylAwDQYJ
KoZIhvcNAQEFBQADggEBAAhDo9heihmxYgkn0PXK/+TAJlP81I10grgwvz5fKZQG
BK9P3QOsqPfNnVhM4ic1j9CbxjVyEmEpFTSiN1+svFXRUysUgrgBbcSHe62hsyMO
GT58UV6vEsSMw95UM2+JDkqHVx5nyjnhvrGu/zj2BfA4t5KHslyIxkWyV8L73mAb
Uuq7oYUUHwl/Z7Sy/PO6dMr7A+/GkdYabomzmZRBDC3OYTqTsk+pzgosiHevSPxN
AU8N7spSyTkLGb3vAG31qbioIWXEpoEcT/urkwy+qRXbJXyvl0r+ndkZOptUYQKL
It96C+Sg/lHDKWj2RtUAWes/UvIhtMsQKfFUP6yXC5o=
-----END CERTIFICATE-----
