Certificate:
    Data:
        Version: 3 (0x2)
        Serial Number: 1 (0x1)
    Signature Algorithm: sha1WithRSAEncryption
        Issuer: C=CN, ST=Guangdong, L=Shenzhen, O=CPay Root CA, OU=CPay Root CA, CN=*.unipay.qq.com
        Validity
            Not Before: Jan  1 00:00:00 2010 GMT
            Not After : Dec 22 07:46:59 2028 GMT
        Subject: C=CN, ST=Guangdong, O=CPay Root CA, OU=CPay Root CA, CN=*.unipay.qq.com
        Subject Public Key Info:
            Public Key Algorithm: rsaEncryption
                Public-Key: (2048 bit)
                Modulus:
                    00:dc:21:e1:39:d3:91:25:77:3e:93:14:dd:e8:13:
                    a4:6f:ac:ae:f9:bc:03:17:1c:fe:90:62:ec:fb:ae:
                    2c:30:d2:9d:ef:af:c1:28:be:66:df:b3:cb:82:6a:
                    61:46:cd:af:a3:55:da:2b:24:35:f1:4e:48:76:a4:
                    9c:7c:cf:cc:89:7a:90:69:95:30:4c:ef:99:98:aa:
                    27:9d:73:17:80:57:bc:f6:29:10:c3:3e:5e:84:50:
                    bd:5c:3e:98:5b:00:3e:c3:ba:bf:b6:48:23:71:a2:
                    8b:61:3b:03:9e:b2:9c:6a:5c:fd:49:63:96:1d:ac:
                    f0:c8:19:07:a6:5e:0f:73:3f:2c:a2:ed:7a:f5:c8:
                    b2:f5:5b:67:9b:7d:5c:ff:43:5f:42:25:b9:2d:5a:
                    82:43:10:9e:bc:7d:cf:b5:c5:f8:0e:d3:bf:bb:ef:
                    eb:40:57:61:10:79:94:4e:e4:c3:bf:76:71:5a:73:
                    f5:a8:62:50:b5:1a:f6:97:7f:b1:56:d7:dc:17:67:
                    8c:25:8c:a2:35:6e:f8:07:52:70:11:76:b1:a1:c5:
                    f8:d8:49:b0:03:e5:8a:d6:e6:21:8d:74:0a:a9:71:
                    e7:f7:5b:ba:69:87:d0:c1:7b:fe:48:d4:d8:60:4d:
                    d3:ea:e1:d9:0c:e8:bd:2d:ef:25:6a:c1:80:08:8d:
                    d4:ff
                Exponent: 65537 (0x10001)
        X509v3 extensions:
            X509v3 Basic Constraints: 
                CA:FALSE
            Netscape Comment: 
                OpenSSL Generated Certificate
            X509v3 Subject Key Identifier: 
                69:56:AC:F6:26:73:D1:9D:8D:4E:7D:FE:FD:C1:C7:4B:E2:B3:86:C0
            X509v3 Authority Key Identifier: 
                keyid:13:7E:B6:8B:EF:3A:B5:73:7A:0D:54:0A:BD:90:CC:EF:8C:50:2B:6C
                DirName:/C=CN/ST=Guangdong/L=Shenzhen/O=CPay Root CA/OU=CPay Root CA/CN=*.unipay.qq.com
                serial:CE:5F:EF:9A:C0:90:36:CA

            X509v3 Key Usage: 
                Digital Signature, Non Repudiation, Key Encipherment
            X509v3 Subject Alternative Name: 
                DNS:api.unipay.qq.com, DNS:sandbox.api.unipay.qq.com, DNS:210.140.202.80, IP Address:210.140.202.80
    Signature Algorithm: sha1WithRSAEncryption
         96:ff:ef:77:c5:dc:3f:83:18:5c:60:47:db:3b:84:ed:32:1b:
         23:5e:58:cf:30:c1:e2:83:be:b3:35:ec:cd:e3:18:a6:24:72:
         0a:da:39:d9:f2:d5:2c:89:c0:6a:d7:d6:3d:50:33:b3:18:81:
         bd:64:d3:e1:df:68:31:6e:e5:e8:1f:ac:9f:ac:49:12:c2:87:
         71:06:9e:9b:13:22:a4:15:ce:1d:73:59:36:b6:c7:44:8f:98:
         6f:87:55:ab:37:95:a1:cf:9b:ff:07:7f:a5:31:b7:62:7a:a4:
         c8:4b:d2:d3:91:20:dc:c6:be:b9:68:22:91:a1:bc:9b:ca:33:
         ea:9f:eb:a7:88:b9:7e:8a:4d:8f:49:e7:48:7e:e6:ce:58:5f:
         a5:44:a4:4d:e1:27:4d:31:c6:e0:5a:d5:c9:75:47:ed:c8:31:
         f3:2a:72:74:60:e6:4e:9b:bd:4e:37:89:fa:ed:55:a9:f2:99:
         60:f5:1c:9a:84:d9:db:e1:3d:23:e0:cc:f9:ca:fa:f1:86:77:
         9f:be:2c:dd:1c:57:74:71:9c:6c:4d:f4:d5:a7:3a:a3:62:72:
         ac:fb:72:f2:1c:4f:65:40:42:11:ed:71:07:03:27:1b:ab:50:
         b6:3d:ca:c2:5e:3d:2b:69:60:e5:f4:7a:be:71:19:d1:53:5a:
         ce:36:39:38
-----BEGIN CERTIFICATE-----
MIIEzDCCA7SgAwIBAgIBATANBgkqhkiG9w0BAQUFADB8MQswCQYDVQQGEwJDTjES
MBAGA1UECBMJR3Vhbmdkb25nMREwDwYDVQQHEwhTaGVuemhlbjEVMBMGA1UEChMM
Q1BheSBSb290IENBMRUwEwYDVQQLEwxDUGF5IFJvb3QgQ0ExGDAWBgNVBAMUDyou
dW5pcGF5LnFxLmNvbTAeFw0xMDAxMDEwMDAwMDBaFw0yODEyMjIwNzQ2NTlaMGkx
CzAJBgNVBAYTAkNOMRIwEAYDVQQIEwlHdWFuZ2RvbmcxFTATBgNVBAoTDENQYXkg
Um9vdCBDQTEVMBMGA1UECxMMQ1BheSBSb290IENBMRgwFgYDVQQDFA8qLnVuaXBh
eS5xcS5jb20wggEiMA0GCSqGSIb3DQEBAQUAA4IBDwAwggEKAoIBAQDcIeE505El
dz6TFN3oE6RvrK75vAMXHP6QYuz7riww0p3vr8Eovmbfs8uCamFGza+jVdorJDXx
Tkh2pJx8z8yJepBplTBM75mYqiedcxeAV7z2KRDDPl6EUL1cPphbAD7Dur+2SCNx
oothOwOespxqXP1JY5YdrPDIGQemXg9zPyyi7Xr1yLL1W2ebfVz/Q19CJbktWoJD
EJ68fc+1xfgO07+77+tAV2EQeZRO5MO/dnFac/WoYlC1GvaXf7FW19wXZ4wljKI1
bvgHUnARdrGhxfjYSbAD5YrW5iGNdAqpcef3W7pph9DBe/5I1NhgTdPq4dkM6L0t
7yVqwYAIjdT/AgMBAAGjggFqMIIBZjAJBgNVHRMEAjAAMCwGCWCGSAGG+EIBDQQf
Fh1PcGVuU1NMIEdlbmVyYXRlZCBDZXJ0aWZpY2F0ZTAdBgNVHQ4EFgQUaVas9iZz
0Z2NTn3+/cHHS+KzhsAwga8GA1UdIwSBpzCBpIAUE362i+86tXN6DVQKvZDM74xQ
K2yhgYCkfjB8MQswCQYDVQQGEwJDTjESMBAGA1UECBMJR3Vhbmdkb25nMREwDwYD
VQQHEwhTaGVuemhlbjEVMBMGA1UEChMMQ1BheSBSb290IENBMRUwEwYDVQQLEwxD
UGF5IFJvb3QgQ0ExGDAWBgNVBAMUDyoudW5pcGF5LnFxLmNvbYIJAM5f75rAkDbK
MAsGA1UdDwQEAwIF4DBNBgNVHREERjBEghFhcGkudW5pcGF5LnFxLmNvbYIZc2Fu
ZGJveC5hcGkudW5pcGF5LnFxLmNvbYIOMjEwLjE0MC4yMDIuODCHBNKMylAwDQYJ
KoZIhvcNAQEFBQADggEBAJb/73fF3D+DGFxgR9s7hO0yGyNeWM8wweKDvrM17M3j
GKYkcgraOdny1SyJwGrX1j1QM7MYgb1k0+HfaDFu5egfrJ+sSRLCh3EGnpsTIqQV
zh1zWTa2x0SPmG+HVas3laHPm/8Hf6Uxt2J6pMhL0tORINzGvrloIpGhvJvKM+qf
66eIuX6KTY9J50h+5s5YX6VEpE3hJ00xxuBa1cl1R+3IMfMqcnRg5k6bvU43ifrt
VanymWD1HJqE2dvhPSPgzPnK+vGGd5++LN0cV3RxnGxN9NWnOqNicqz7cvIcT2VA
QhHtcQcDJxurULY9ysJePStpYOX0er5xGdFTWs42OTg=
-----END CERTIFICATE-----
